target datalayout = "e-m:e-p270:32:32-p271:32:32-p272:64:64-i64:64-i128:128-f80:128-n8:16:32:64-S128"
target triple = "x86_64-pc-linux-gnu"

%struct._zval_struct = type { %union._zend_value, %union.anon.3, %union.anon.6 }
%union._zend_value = type { i64 }
%union.anon.3 = type { i32 }
%union.anon.6 = type { i32 }
%struct._php_stream_ops = type { ptr, ptr, ptr, ptr, ptr, ptr, ptr, ptr, ptr }
%struct._php_stream = type { ptr, ptr, %struct._php_stream_filter_chain, %struct._php_stream_filter_chain, ptr, ptr, %struct._zval_struct, i16, [16 x i8], i32, ptr, ptr, ptr, ptr, i64, ptr, i64, i64, i64, i64, ptr }
%struct._php_stream_filter_chain = type { ptr, ptr, ptr }

; Function Attrs: nounwind uwtable
define i32 @_php_stream_flush(ptr noundef %0, i32 noundef %1) #0 {
  %3 = alloca ptr, align 8
  %4 = alloca i32, align 4
  %5 = alloca i32, align 4
  store ptr %0, ptr %3, align 8
  store i32 %1, ptr %4, align 4
  store i32 0, ptr %5, align 4
  %6 = load ptr, ptr %3, align 8
  %7 = getelementptr inbounds %struct._php_stream, ptr %6, i32 0, i32 3
  %8 = getelementptr inbounds %struct._php_stream_filter_chain, ptr %7, i32 0, i32 0
  %9 = load ptr, ptr %8, align 8
  %10 = icmp ne ptr %9, null
  br i1 %10, label %11, label %17

11:                                               ; preds = %2
  %12 = load ptr, ptr %3, align 8
  %13 = load i32, ptr %4, align 4
  %14 = icmp ne i32 %13, 0
  %15 = select i1 %14, i32 2, i32 1
  %16 = call i64 @_php_stream_write_filtered(ptr noundef %12, ptr noundef null, i64 noundef 0, i32 noundef %15)
  br label %17

17:                                               ; preds = %11, %2
  %18 = load ptr, ptr %3, align 8
  %19 = getelementptr inbounds %struct._php_stream, ptr %18, i32 0, i32 9
  %20 = load i32, ptr %19, align 4
  %21 = and i32 %20, 2147483647
  store i32 %21, ptr %19, align 4
  %22 = load ptr, ptr %3, align 8
  %23 = getelementptr inbounds %struct._php_stream, ptr %22, i32 0, i32 0
  %24 = load ptr, ptr %23, align 8
  %25 = getelementptr inbounds %struct._php_stream_ops, ptr %24, i32 0, i32 3
  %26 = load ptr, ptr %25, align 8
  %27 = icmp ne ptr %26, null
  br i1 %27, label %28, label %36

28:                                               ; preds = %17
  %29 = load ptr, ptr %3, align 8
  %30 = getelementptr inbounds %struct._php_stream, ptr %29, i32 0, i32 0
  %31 = load ptr, ptr %30, align 8
  %32 = getelementptr inbounds %struct._php_stream_ops, ptr %31, i32 0, i32 3
  %33 = load ptr, ptr %32, align 8
  %34 = load ptr, ptr %3, align 8
  %35 = call i32 %33(ptr noundef %34)
  store i32 %35, ptr %5, align 4
  br label %36

36:                                               ; preds = %28, %17
  %37 = load i32, ptr %5, align 4
  ret i32 %37
}