; Function Attrs: nounwind uwtable
define i32 @_php_stream_flush(ptr noundef %0, i32 noundef %1) local_unnamed_addr #2 {
  %3 = getelementptr inbounds i8, ptr %0, i64 40
  %4 = load ptr, ptr %3, align 8
  %.not = icmp eq ptr %4, null
  br i1 %.not, label %8, label %5

5:                                                ; preds = %2
  %.not8 = icmp eq i32 %1, 0
  %6 = select i1 %.not8, i32 1, i32 2
  %7 = tail call fastcc i64 @_php_stream_write_filtered(ptr noundef nonnull %0, ptr noundef null, i64 noundef 0, i32 noundef %6)
  br label %8

8:                                                ; preds = %5, %2
  %9 = getelementptr inbounds i8, ptr %0, i64 116
  %10 = load i32, ptr %9, align 4
  %11 = and i32 %10, 2147483647
  store i32 %11, ptr %9, align 4
  %12 = load ptr, ptr %0, align 8
  %13 = getelementptr inbounds i8, ptr %12, i64 24
  %14 = load ptr, ptr %13, align 8
  %.not9 = icmp eq ptr %14, null
  br i1 %.not9, label %17, label %15

15:                                               ; preds = %8
  %16 = tail call i32 %14(ptr noundef nonnull %0) #27
  br label %17

17:                                               ; preds = %15, %8
  %.0 = phi i32 [ %16, %15 ], [ 0, %8 ]
  ret i32 %.0
}